target datalayout = "e-m:e-p270:32:32-p271:32:32-p272:64:64-i64:64-i128:128-f80:128-n8:16:32:64-S128"
target triple = "x86_64-pc-linux-gnu"

%struct.CRYPTO_REF_COUNT = type { i32 }
%struct.bio_st = type { ptr, ptr, ptr, ptr, ptr, i32, i32, i32, i32, i32, ptr, ptr, ptr, %struct.CRYPTO_REF_COUNT, i64, i64, %struct.crypto_ex_data_st }
%struct.crypto_ex_data_st = type { ptr, ptr }

@.str = private unnamed_addr constant [32 x i8] c"../openssl/crypto/bio/bio_lib.c\00", align 1
@__func__.BIO_do_connect_retry = private unnamed_addr constant [21 x i8] c"BIO_do_connect_retry\00", align 1

; Function Attrs: nounwind uwtable
define internal i32 @bio_wait(ptr noundef %0, i64 noundef %1, i32 noundef %2) #0 {
  %4 = alloca i32, align 4
  %5 = alloca ptr, align 8
  %6 = alloca i64, align 8
  %7 = alloca i32, align 4
  %8 = alloca i32, align 4
  %9 = alloca i64, align 8
  %10 = alloca i32, align 4
  %11 = alloca i32, align 4
  store ptr %0, ptr %5, align 8, !tbaa !10
  store i64 %1, ptr %6, align 8, !tbaa !34
  store i32 %2, ptr %7, align 4, !tbaa !26
  call void @llvm.lifetime.start.p0(i64 4, ptr %8) #5
  call void @llvm.lifetime.start.p0(i64 8, ptr %9) #5
  %12 = load i64, ptr %6, align 8, !tbaa !34
  %13 = icmp eq i64 %12, 0
  br i1 %13, label %14, label %15

14:                                               ; preds = %3
  store i32 1, ptr %4, align 4
  store i32 1, ptr %10, align 4
  br label %62

15:                                               ; preds = %3
  %16 = load ptr, ptr %5, align 8, !tbaa !10
  %17 = call i64 @BIO_ctrl(ptr noundef %16, i32 noundef 105, i64 noundef 0, ptr noundef %8)
  %18 = icmp sgt i64 %17, 0
  br i1 %18, label %19, label %33

19:                                               ; preds = %15
  call void @llvm.lifetime.start.p0(i64 4, ptr %11) #5
  %20 = load i32, ptr %8, align 4, !tbaa !26
  %21 = load ptr, ptr %5, align 8, !tbaa !10
  %22 = call i32 @BIO_test_flags(ptr noundef %21, i32 noundef 1)
  %23 = load i64, ptr %6, align 8, !tbaa !34
  %24 = call i32 @BIO_socket_wait(i32 noundef %20, i32 noundef %22, i64 noundef %23)
  store i32 %24, ptr %11, align 4, !tbaa !26
  %25 = load i32, ptr %11, align 4, !tbaa !26
  %26 = icmp ne i32 %25, -1
  br i1 %26, label %27, label %29

27:                                               ; preds = %19
  %28 = load i32, ptr %11, align 4, !tbaa !26
  store i32 %28, ptr %4, align 4
  store i32 1, ptr %10, align 4
  br label %30

29:                                               ; preds = %19
  store i32 0, ptr %10, align 4
  br label %30

30:                                               ; preds = %29, %27
  call void @llvm.lifetime.end.p0(i64 4, ptr %11) #5
  %31 = load i32, ptr %10, align 4
  switch i32 %31, label %62 [
    i32 0, label %32
  ]

32:                                               ; preds = %30
  br label %33

33:                                               ; preds = %32, %15
  %34 = load i64, ptr %6, align 8, !tbaa !34
  %35 = call i64 @time(ptr noundef null) #5
  %36 = sub nsw i64 %34, %35
  store i64 %36, ptr %9, align 8, !tbaa !34
  %37 = load i64, ptr %9, align 8, !tbaa !34
  %38 = icmp slt i64 %37, 0
  br i1 %38, label %39, label %40

39:                                               ; preds = %33
  store i32 0, ptr %4, align 4
  store i32 1, ptr %10, align 4
  br label %62

40:                                               ; preds = %33
  %41 = load i64, ptr %9, align 8, !tbaa !34
  %42 = icmp eq i64 %41, 0
  br i1 %42, label %43, label %48

43:                                               ; preds = %40
  %44 = load i32, ptr %7, align 4, !tbaa !26
  %45 = icmp ugt i32 %44, 1000
  br i1 %45, label %46, label %47

46:                                               ; preds = %43
  store i32 1000, ptr %7, align 4, !tbaa !26
  br label %47

47:                                               ; preds = %46, %43
  br label %59

48:                                               ; preds = %40
  %49 = load i64, ptr %9, align 8, !tbaa !34
  %50 = mul i64 %49, 1000
  %51 = load i32, ptr %7, align 4, !tbaa !26
  %52 = zext i32 %51 to i64
  %53 = icmp ult i64 %50, %52
  br i1 %53, label %54, label %58

54:                                               ; preds = %48
  %55 = load i64, ptr %9, align 8, !tbaa !34
  %56 = trunc i64 %55 to i32
  %57 = mul i32 %56, 1000
  store i32 %57, ptr %7, align 4, !tbaa !26
  br label %58

58:                                               ; preds = %54, %48
  br label %59

59:                                               ; preds = %58, %47
  %60 = load i32, ptr %7, align 4, !tbaa !26
  %61 = zext i32 %60 to i64
  call void @OSSL_sleep(i64 noundef %61)
  store i32 1, ptr %4, align 4
  store i32 1, ptr %10, align 4
  br label %62

62:                                               ; preds = %59, %39, %30, %14
  call void @llvm.lifetime.end.p0(i64 8, ptr %9) #5
  call void @llvm.lifetime.end.p0(i64 4, ptr %8) #5
  %63 = load i32, ptr %4, align 4
  ret i32 %63
}

; Function Attrs: inlinehint nounwind uwtable
define internal i32 @ERR_GET_LIB(i64 noundef %0) #3 {
  %2 = alloca i32, align 4
  %3 = alloca i64, align 8
  store i64 %0, ptr %3, align 8, !tbaa !34
  %4 = load i64, ptr %3, align 8, !tbaa !34
  %5 = and i64 %4, 2147483648
  %6 = icmp ne i64 %5, 0
  br i1 %6, label %7, label %8

7:                                                ; preds = %1
  store i32 2, ptr %2, align 4
  br label %13

8:                                                ; preds = %1
  %9 = load i64, ptr %3, align 8, !tbaa !34
  %10 = lshr i64 %9, 23
  %11 = and i64 %10, 255
  %12 = trunc i64 %11 to i32
  store i32 %12, ptr %2, align 4
  br label %13

13:                                               ; preds = %8, %7
  %14 = load i32, ptr %2, align 4
  ret i32 %14
}

; Function Attrs: nounwind uwtable
define i32 @BIO_test_flags(ptr noundef %0, i32 noundef %1) #0 {
  %3 = alloca ptr, align 8
  %4 = alloca i32, align 4
  store ptr %0, ptr %3, align 8, !tbaa !10
  store i32 %1, ptr %4, align 4, !tbaa !26
  %5 = load ptr, ptr %3, align 8, !tbaa !10
  %6 = getelementptr inbounds nuw %struct.bio_st, ptr %5, i32 0, i32 7
  %7 = load i32, ptr %6, align 8, !tbaa !38
  %8 = load i32, ptr %4, align 4, !tbaa !26
  %9 = and i32 %7, %8
  ret i32 %9
}

; Function Attrs: inlinehint nounwind uwtable
define internal i32 @ERR_GET_REASON(i64 noundef %0) #3 {
  %2 = alloca i32, align 4
  %3 = alloca i64, align 8
  store i64 %0, ptr %3, align 8, !tbaa !34
  %4 = load i64, ptr %3, align 8, !tbaa !34
  %5 = and i64 %4, 2147483648
  %6 = icmp ne i64 %5, 0
  br i1 %6, label %7, label %11

7:                                                ; preds = %1
  %8 = load i64, ptr %3, align 8, !tbaa !34
  %9 = and i64 %8, 2147483647
  %10 = trunc i64 %9 to i32
  store i32 %10, ptr %2, align 4
  br label %15

11:                                               ; preds = %1
  %12 = load i64, ptr %3, align 8, !tbaa !34
  %13 = and i64 %12, 8388607
  %14 = trunc i64 %13 to i32
  store i32 %14, ptr %2, align 4
  br label %15

15:                                               ; preds = %11, %7
  %16 = load i32, ptr %2, align 4
  ret i32 %16
}

; Function Attrs: nounwind uwtable
define i32 @BIO_do_connect_retry(ptr noundef %0, i32 noundef %1, i32 noundef %2) #0 {
  %4 = alloca i32, align 4
  %5 = alloca ptr, align 8
  %6 = alloca i32, align 4
  %7 = alloca i32, align 4
  %8 = alloca i32, align 4
  %9 = alloca i64, align 8
  %10 = alloca i32, align 4
  %11 = alloca i32, align 4
  %12 = alloca i32, align 4
  %13 = alloca i32, align 4
  %14 = alloca i32, align 4
  store ptr %0, ptr %5, align 8, !tbaa !10
  store i32 %1, ptr %6, align 4, !tbaa !26
  store i32 %2, ptr %7, align 4, !tbaa !26
  call void @llvm.lifetime.start.p0(i64 4, ptr %8) #5
  %15 = load i32, ptr %6, align 4, !tbaa !26
  %16 = icmp sle i32 %15, 0
  %17 = zext i1 %16 to i32
  store i32 %17, ptr %8, align 4, !tbaa !26
  call void @llvm.lifetime.start.p0(i64 8, ptr %9) #5
  %18 = load i32, ptr %6, align 4, !tbaa !26
  %19 = icmp sgt i32 %18, 0
  br i1 %19, label %20, label %25

20:                                               ; preds = %3
  %21 = call i64 @time(ptr noundef null) #5
  %22 = load i32, ptr %6, align 4, !tbaa !26
  %23 = sext i32 %22 to i64
  %24 = add nsw i64 %21, %23
  br label %26

25:                                               ; preds = %3
  br label %26

26:                                               ; preds = %25, %20
  %27 = phi i64 [ %24, %20 ], [ 0, %25 ]
  store i64 %27, ptr %9, align 8, !tbaa !34
  call void @llvm.lifetime.start.p0(i64 4, ptr %10) #5
  %28 = load ptr, ptr %5, align 8, !tbaa !10
  %29 = icmp eq ptr %28, null
  br i1 %29, label %30, label %31

30:                                               ; preds = %26
  call void @ERR_new()
  call void @ERR_set_debug(ptr noundef @.str, i32 noundef 1026, ptr noundef @__func__.BIO_do_connect_retry)
  call void (i32, i32, ptr, ...) @ERR_set_error(i32 noundef 32, i32 noundef 786690, ptr noundef null)
  store i32 -1, ptr %4, align 4
  store i32 1, ptr %11, align 4
  br label %102

31:                                               ; preds = %26
  %32 = load i32, ptr %7, align 4, !tbaa !26
  %33 = icmp slt i32 %32, 0
  br i1 %33, label %34, label %35

34:                                               ; preds = %31
  store i32 100, ptr %7, align 4, !tbaa !26
  br label %35

35:                                               ; preds = %34, %31
  %36 = load ptr, ptr %5, align 8, !tbaa !10
  %37 = load i32, ptr %8, align 4, !tbaa !26
  %38 = icmp ne i32 %37, 0
  %39 = xor i1 %38, true
  %40 = zext i1 %39 to i32
  %41 = sext i32 %40 to i64
  %42 = call i64 @BIO_ctrl(ptr noundef %36, i32 noundef 102, i64 noundef %41, ptr noundef null)
  br label %43

43:                                               ; preds = %95, %35
  %44 = call i32 @ERR_set_mark()
  %45 = load ptr, ptr %5, align 8, !tbaa !10
  %46 = call i64 @BIO_ctrl(ptr noundef %45, i32 noundef 101, i64 noundef 0, ptr noundef null)
  %47 = trunc i64 %46 to i32
  store i32 %47, ptr %10, align 4, !tbaa !26
  %48 = load i32, ptr %10, align 4, !tbaa !26
  %49 = icmp sle i32 %48, 0
  br i1 %49, label %50, label %98

50:                                               ; preds = %43
  call void @llvm.lifetime.start.p0(i64 4, ptr %12) #5
  %51 = call i64 @ERR_peek_last_error()
  %52 = trunc i64 %51 to i32
  store i32 %52, ptr %12, align 4, !tbaa !26
  call void @llvm.lifetime.start.p0(i64 4, ptr %13) #5
  %53 = load i32, ptr %12, align 4, !tbaa !26
  %54 = sext i32 %53 to i64
  %55 = call i32 @ERR_GET_REASON(i64 noundef %54)
  store i32 %55, ptr %13, align 4, !tbaa !26
  call void @llvm.lifetime.start.p0(i64 4, ptr %14) #5
  %56 = load ptr, ptr %5, align 8, !tbaa !10
  %57 = call i32 @BIO_test_flags(ptr noundef %56, i32 noundef 8)
  store i32 %57, ptr %14, align 4, !tbaa !26
  %58 = load i32, ptr %12, align 4, !tbaa !26
  %59 = sext i32 %58 to i64
  %60 = call i32 @ERR_GET_LIB(i64 noundef %59)
  %61 = icmp eq i32 %60, 32
  br i1 %61, label %62, label %69

62:                                               ; preds = %50
  %63 = load i32, ptr %13, align 4, !tbaa !26
  switch i32 %63, label %67 [
    i32 524290, label %64
    i32 103, label %64
    i32 110, label %64
  ]

64:                                               ; preds = %62, %62, %62
  %65 = load ptr, ptr %5, align 8, !tbaa !10
  %66 = call i64 @BIO_ctrl(ptr noundef %65, i32 noundef 1, i64 noundef 0, ptr noundef null)
  store i32 1, ptr %14, align 4, !tbaa !26
  br label %68

67:                                               ; preds = %62
  br label %68

68:                                               ; preds = %67, %64
  br label %69

69:                                               ; preds = %68, %50
  %70 = load i32, ptr %6, align 4, !tbaa !26
  %71 = icmp sge i32 %70, 0
  br i1 %71, label %72, label %88

72:                                               ; preds = %69
  %73 = load i32, ptr %14, align 4, !tbaa !26
  %74 = icmp ne i32 %73, 0
  br i1 %74, label %75, label %88

75:                                               ; preds = %72
  %76 = call i32 @ERR_pop_to_mark()
  %77 = load ptr, ptr %5, align 8, !tbaa !10
  %78 = load i64, ptr %9, align 8, !tbaa !34
  %79 = load i32, ptr %7, align 4, !tbaa !26
  %80 = call i32 @bio_wait(ptr noundef %77, i64 noundef %78, i32 noundef %79)
  store i32 %80, ptr %10, align 4, !tbaa !26
  %81 = load i32, ptr %10, align 4, !tbaa !26
  %82 = icmp sgt i32 %81, 0
  br i1 %82, label %83, label %84

83:                                               ; preds = %75
  store i32 2, ptr %11, align 4
  br label %95

84:                                               ; preds = %75
  call void @ERR_new()
  call void @ERR_set_debug(ptr noundef @.str, i32 noundef 1069, ptr noundef @__func__.BIO_do_connect_retry)
  %85 = load i32, ptr %10, align 4, !tbaa !26
  %86 = icmp eq i32 %85, 0
  %87 = select i1 %86, i32 147, i32 103
  call void (i32, i32, ptr, ...) @ERR_set_error(i32 noundef 32, i32 noundef %87, ptr noundef null)
  br label %94

88:                                               ; preds = %72, %69
  %89 = call i32 @ERR_clear_last_mark()
  store i32 -1, ptr %10, align 4, !tbaa !26
  %90 = load i32, ptr %12, align 4, !tbaa !26
  %91 = icmp eq i32 %90, 0
  br i1 %91, label %92, label %93

92:                                               ; preds = %88
  call void @ERR_new()
  call void @ERR_set_debug(ptr noundef @.str, i32 noundef 1075, ptr noundef @__func__.BIO_do_connect_retry)
  call void (i32, i32, ptr, ...) @ERR_set_error(i32 noundef 32, i32 noundef 103, ptr noundef null)
  br label %93

93:                                               ; preds = %92, %88
  br label %94

94:                                               ; preds = %93, %84
  store i32 0, ptr %11, align 4
  br label %95

95:                                               ; preds = %94, %83
  call void @llvm.lifetime.end.p0(i64 4, ptr %14) #5
  call void @llvm.lifetime.end.p0(i64 4, ptr %13) #5
  call void @llvm.lifetime.end.p0(i64 4, ptr %12) #5
  %96 = load i32, ptr %11, align 4
  switch i32 %96, label %104 [
    i32 0, label %97
    i32 2, label %43
  ]

97:                                               ; preds = %95
  br label %100

98:                                               ; preds = %43
  %99 = call i32 @ERR_clear_last_mark()
  br label %100

100:                                              ; preds = %98, %97
  %101 = load i32, ptr %10, align 4, !tbaa !26
  store i32 %101, ptr %4, align 4
  store i32 1, ptr %11, align 4
  br label %102

102:                                              ; preds = %100, %30
  call void @llvm.lifetime.end.p0(i64 4, ptr %10) #5
  call void @llvm.lifetime.end.p0(i64 8, ptr %9) #5
  call void @llvm.lifetime.end.p0(i64 4, ptr %8) #5
  %103 = load i32, ptr %4, align 4
  ret i32 %103

104:                                              ; preds = %95
  unreachable
}